; Function Attrs: mustprogress uwtable
define noundef i32 @_ZN6icu_7525EthiopicAmeteAlemCalendar21handleGetExtendedYearEv(ptr noundef nonnull align 8 dereferenceable(618) %this) unnamed_addr #1 align 2 {
entry:
  %call = tail call noundef i32 @_ZNK6icu_758Calendar10newerFieldE19UCalendarDateFieldsS1_(ptr noundef nonnull align 8 dereferenceable(618) %this, i32 noundef 19, i32 noundef 1)
  %cmp = icmp eq i32 %call, 19
  br i1 %cmp, label %if.then, label %if.end

if.then:                                          ; preds = %entry
  %arrayidx.i = getelementptr inbounds i8, ptr %this, i64 208
  %0 = load i32, ptr %arrayidx.i, align 8
  %cmp.i = icmp sgt i32 %0, 0
  br i1 %cmp.i, label %cond.true.i, label %return

cond.true.i:                                      ; preds = %if.then
  %arrayidx3.i = getelementptr inbounds i8, ptr %this, i64 88
  %1 = load i32, ptr %arrayidx3.i, align 8
  br label %return

if.end:                                           ; preds = %entry
  %arrayidx.i2 = getelementptr inbounds i8, ptr %this, i64 136
  %2 = load i32, ptr %arrayidx.i2, align 8
  %arrayidx3.i7 = getelementptr inbounds i8, ptr %this, i64 16
  %3 = load i32, ptr %arrayidx3.i7, align 8
  %4 = add nsw i32 %3, -5500
  %cmp.i3.inv = icmp slt i32 %2, 1
  %sub = select i1 %cmp.i3.inv, i32 1, i32 %4
  br label %return

return:                                           ; preds = %cond.true.i, %if.then, %if.end
  %retval.0 = phi i32 [ %sub, %if.end ], [ %1, %cond.true.i ], [ 1, %if.then ]
  ret i32 %retval.0
}